
a.elf:     file format elf32-littleriscv


Disassembly of section .text:

00000000 <_start>:
   0:	000000b3          	add	ra,zero,zero
   4:	00000133          	add	sp,zero,zero
   8:	000001b3          	add	gp,zero,zero
   c:	00000233          	add	tp,zero,zero
  10:	000002b3          	add	t0,zero,zero
  14:	00000333          	add	t1,zero,zero
  18:	000003b3          	add	t2,zero,zero
  1c:	00000433          	add	s0,zero,zero
  20:	000004b3          	add	s1,zero,zero
  24:	00000533          	add	a0,zero,zero
  28:	000005b3          	add	a1,zero,zero
  2c:	00000633          	add	a2,zero,zero
  30:	000006b3          	add	a3,zero,zero
  34:	00000733          	add	a4,zero,zero
  38:	000007b3          	add	a5,zero,zero
  3c:	00000833          	add	a6,zero,zero
  40:	000008b3          	add	a7,zero,zero
  44:	00000933          	add	s2,zero,zero
  48:	000009b3          	add	s3,zero,zero
  4c:	00000a33          	add	s4,zero,zero
  50:	00000ab3          	add	s5,zero,zero
  54:	00000b33          	add	s6,zero,zero
  58:	00000bb3          	add	s7,zero,zero
  5c:	00000c33          	add	s8,zero,zero
  60:	00000cb3          	add	s9,zero,zero
  64:	00000d33          	add	s10,zero,zero
  68:	00000db3          	add	s11,zero,zero
  6c:	00000e33          	add	t3,zero,zero
  70:	00000eb3          	add	t4,zero,zero
  74:	00000f33          	add	t5,zero,zero
  78:	00000fb3          	add	t6,zero,zero
  7c:	00001137          	lui	sp,0x1
  80:	0080006f          	j	88 <main>

00000084 <finish>:
  84:	00000073          	ecall

00000088 <main>:
  88:	fe010113          	addi	sp,sp,-32 # fe0 <_puts+0xea4>
  8c:	00112e23          	sw	ra,28(sp)
  90:	00812c23          	sw	s0,24(sp)
  94:	02010413          	addi	s0,sp,32
  98:	fe042623          	sw	zero,-20(s0)
  9c:	0200006f          	j	bc <main+0x34>
  a0:	16c00513          	li	a0,364
  a4:	040000ef          	jal	e4 <print>
  a8:	17c00513          	li	a0,380
  ac:	038000ef          	jal	e4 <print>
  b0:	fec42783          	lw	a5,-20(s0)
  b4:	00178793          	addi	a5,a5,1
  b8:	fef42623          	sw	a5,-20(s0)
  bc:	fec42703          	lw	a4,-20(s0)
  c0:	01300793          	li	a5,19
  c4:	fce7dee3          	bge	a5,a4,a0 <main+0x18>
  c8:	fbdff0ef          	jal	84 <finish>
  cc:	00000793          	li	a5,0
  d0:	00078513          	mv	a0,a5
  d4:	01c12083          	lw	ra,28(sp)
  d8:	01812403          	lw	s0,24(sp)
  dc:	02010113          	addi	sp,sp,32
  e0:	00008067          	ret

000000e4 <print>:
  e4:	fe010113          	addi	sp,sp,-32
  e8:	00112e23          	sw	ra,28(sp)
  ec:	00812c23          	sw	s0,24(sp)
  f0:	02010413          	addi	s0,sp,32
  f4:	fea42623          	sw	a0,-20(s0)
  f8:	0200006f          	j	118 <print+0x34>
  fc:	fec42783          	lw	a5,-20(s0)
 100:	0007c783          	lbu	a5,0(a5)
 104:	00078513          	mv	a0,a5
 108:	034000ef          	jal	13c <_puts>
 10c:	fec42783          	lw	a5,-20(s0)
 110:	00178793          	addi	a5,a5,1
 114:	fef42623          	sw	a5,-20(s0)
 118:	fec42783          	lw	a5,-20(s0)
 11c:	0007c783          	lbu	a5,0(a5)
 120:	fc079ee3          	bnez	a5,fc <print+0x18>
 124:	00000013          	nop
 128:	00000013          	nop
 12c:	01c12083          	lw	ra,28(sp)
 130:	01812403          	lw	s0,24(sp)
 134:	02010113          	addi	sp,sp,32
 138:	00008067          	ret

0000013c <_puts>:
 13c:	fe010113          	addi	sp,sp,-32
 140:	00812e23          	sw	s0,28(sp)
 144:	02010413          	addi	s0,sp,32
 148:	00050793          	mv	a5,a0
 14c:	fef407a3          	sb	a5,-17(s0)
 150:	080007b7          	lui	a5,0x8000
 154:	fef44703          	lbu	a4,-17(s0)
 158:	00e7a023          	sw	a4,0(a5) # 8000000 <_puts+0x7fffec4>
 15c:	00000013          	nop
 160:	01c12403          	lw	s0,28(sp)
 164:	02010113          	addi	sp,sp,32
 168:	00008067          	ret

Disassembly of section .rodata:

0000016c <.rodata>:
 16c:	6548                	.insn	2, 0x6548
 16e:	6c6c                	.insn	2, 0x6c6c
 170:	6f57206f          	j	73064 <_puts+0x72f28>
 174:	6c72                	.insn	2, 0x6c72
 176:	2164                	.insn	2, 0x2164
 178:	0a21                	.insn	2, 0x0a21
 17a:	0000                	.insn	2, 0x
 17c:	4b54                	.insn	2, 0x4b54
 17e:	4555                	.insn	2, 0x4555
 180:	2045                	.insn	2, 0x2045
 182:	4349                	.insn	2, 0x4349
 184:	414c                	.insn	2, 0x414c
 186:	3a42                	.insn	2, 0x3a42
 188:	5220                	.insn	2, 0x5220
 18a:	3356                	.insn	2, 0x3356
 18c:	4932                	.insn	2, 0x4932
 18e:	4520                	.insn	2, 0x4520
 190:	756d                	.insn	2, 0x756d
 192:	616c                	.insn	2, 0x616c
 194:	6f74                	.insn	2, 0x6f74
 196:	0a72                	.insn	2, 0x0a72
	...

Disassembly of section .riscv.attributes:

00000000 <.riscv.attributes>:
   0:	1b41                	.insn	2, 0x1b41
   2:	0000                	.insn	2, 0x
   4:	7200                	.insn	2, 0x7200
   6:	7369                	.insn	2, 0x7369
   8:	01007663          	bgeu	zero,a6,14 <_start+0x14>
   c:	0011                	.insn	2, 0x0011
   e:	0000                	.insn	2, 0x
  10:	1004                	.insn	2, 0x1004
  12:	7205                	.insn	2, 0x7205
  14:	3376                	.insn	2, 0x3376
  16:	6932                	.insn	2, 0x6932
  18:	7032                	.insn	2, 0x7032
  1a:	0031                	.insn	2, 0x0031

Disassembly of section .comment:

00000000 <.comment>:
   0:	3a434347          	.insn	4, 0x3a434347
   4:	2820                	.insn	2, 0x2820
   6:	2029                	.insn	2, 0x2029
   8:	3331                	.insn	2, 0x3331
   a:	322e                	.insn	2, 0x322e
   c:	302e                	.insn	2, 0x302e
	...
